; Function Attrs: mustprogress nofree norecurse nosync nounwind willreturn memory(read, argmem: readwrite, inaccessiblemem: none) uwtable
define internal noundef zeroext i1 @_ZN12_GLOBAL__N_121ShregmapTechGreenpak47analyzeERSt6vectorIiSaIiEE(ptr nonnull readnone align 8 captures(none) %0, ptr noundef nonnull align 8 captures(none) dereferenceable(24) %1) unnamed_addr #20 align 2 personality ptr @__gxx_personality_v0 {
  %3 = getelementptr inbounds nuw i8, ptr %1, i64 8
  %4 = load ptr, ptr %3, align 8, !tbaa !225
  %5 = load ptr, ptr %1, align 8, !tbaa !55
  %6 = ptrtoint ptr %4 to i64
  %7 = ptrtoint ptr %5 to i64
  %8 = sub i64 %6, %7
  %9 = lshr exact i64 %8, 2
  %10 = trunc i64 %9 to i32
  %11 = icmp sgt i32 %10, 2
  br i1 %11, label %12, label %21

12:                                               ; preds = %2
  %13 = load i32, ptr %5, align 4, !tbaa !56
  %14 = icmp eq i32 %13, 0
  br i1 %14, label %15, label %_ZNSt6vectorIiSaIiEE5clearEv.exit

15:                                               ; preds = %12
  %16 = getelementptr inbounds nuw i8, ptr %5, i64 8
  %17 = load i32, ptr %16, align 4, !tbaa !56
  %18 = icmp slt i32 %17, 17
  br i1 %18, label %19, label %_ZNSt6vectorIiSaIiEE5clearEv.exit

19:                                               ; preds = %15
  %.not.i.i = icmp eq ptr %4, %5
  br i1 %.not.i.i, label %_ZNSt6vectorIiSaIiEE5clearEv.exit, label %20

20:                                               ; preds = %19
  store ptr %5, ptr %3, align 8, !tbaa !225
  br label %_ZNSt6vectorIiSaIiEE5clearEv.exit

21:                                               ; preds = %2
  %22 = getelementptr inbounds i8, ptr %4, i64 -4
  %23 = load i32, ptr %22, align 4, !tbaa !56
  %24 = icmp slt i32 %23, 17
  br label %_ZNSt6vectorIiSaIiEE5clearEv.exit

_ZNSt6vectorIiSaIiEE5clearEv.exit:                ; preds = %12, %15, %20, %19, %21
  %.0 = phi i1 [ %24, %21 ], [ true, %19 ], [ true, %20 ], [ false, %15 ], [ false, %12 ]
  ret i1 %.0
}